; Function Attrs: mustprogress uwtable
define hidden void @_ZN5nlsat6solver7dec_refEj(ptr nocapture noundef nonnull readonly align 8 dereferenceable(16) %this, i32 noundef %b) local_unnamed_addr #4 align 2 {
entry:
  %0 = load ptr, ptr %this, align 8
  %cmp.i = icmp eq i32 %b, 2147483647
  br i1 %cmp.i, label %_ZN5nlsat6solver3imp7dec_refEj.exit, label %if.end.i

if.end.i:                                         ; preds = %entry
  %m_atoms.i = getelementptr inbounds i8, ptr %0, i64 360
  %1 = load ptr, ptr %m_atoms.i, align 8
  %idxprom.i.i = zext i32 %b to i64
  %arrayidx.i.i = getelementptr inbounds ptr, ptr %1, i64 %idxprom.i.i
  %2 = load ptr, ptr %arrayidx.i.i, align 8
  %cmp2.i = icmp eq ptr %2, null
  br i1 %cmp2.i, label %_ZN5nlsat6solver3imp7dec_refEj.exit, label %if.end4.i

if.end4.i:                                        ; preds = %if.end.i
  %m_ref_count.i.i = getelementptr inbounds i8, ptr %2, i64 4
  %3 = load i32, ptr %m_ref_count.i.i, align 4
  %dec.i.i = add i32 %3, -1
  store i32 %dec.i.i, ptr %m_ref_count.i.i, align 4
  %cmp6.i = icmp eq i32 %dec.i.i, 0
  br i1 %cmp6.i, label %if.end.i.i, label %_ZN5nlsat6solver3imp7dec_refEj.exit

if.end.i.i:                                       ; preds = %if.end4.i
  %4 = load i32, ptr %2, align 4
  %cmp.i.i.i = icmp slt i32 %4, 3
  br i1 %cmp.i.i.i, label %if.then2.i.i, label %if.else.i.i

if.then2.i.i:                                     ; preds = %if.end.i.i
  tail call void @_ZN5nlsat6solver3imp3delEPNS_9ineq_atomE(ptr noundef nonnull align 8 dereferenceable(728) %0, ptr noundef nonnull %2)
  br label %_ZN5nlsat6solver3imp7dec_refEj.exit

if.else.i.i:                                      ; preds = %if.end.i.i
  tail call void @_ZN5nlsat6solver3imp3delEPNS_9root_atomE(ptr noundef nonnull align 8 dereferenceable(728) %0, ptr noundef nonnull %2)
  br label %_ZN5nlsat6solver3imp7dec_refEj.exit

_ZN5nlsat6solver3imp7dec_refEj.exit:              ; preds = %entry, %if.end.i, %if.end4.i, %if.then2.i.i, %if.else.i.i
  ret void
}